; Function Attrs: mustprogress nofree norecurse nosync nounwind willreturn memory(argmem: readwrite) uwtable
define noundef zeroext i1 @_ZN32pxrInternal_v0_24__pxrReserved__19GfFindClosestPointsERKNS_6GfLineES2_PNS_7GfVec3dES4_PdS5_(ptr noundef nonnull readonly align 8 captures(none) dereferenceable(48) %0, ptr noundef nonnull readonly align 8 captures(none) dereferenceable(48) %1, ptr noundef writeonly %2, ptr noundef writeonly %3, ptr noundef writeonly %4, ptr noundef writeonly %5) local_unnamed_addr #2 {
  %7 = getelementptr inbounds nuw i8, ptr %0, i64 24
  %8 = getelementptr inbounds nuw i8, ptr %1, i64 24
  %9 = load double, ptr %7, align 8
  %10 = load double, ptr %8, align 8
  %11 = getelementptr inbounds nuw i8, ptr %0, i64 32
  %12 = load double, ptr %11, align 8
  %13 = getelementptr inbounds nuw i8, ptr %1, i64 32
  %14 = load double, ptr %13, align 8
  %15 = fmul double %12, %14
  %16 = tail call double @llvm.fmuladd.f64(double %9, double %10, double %15)
  %17 = getelementptr inbounds nuw i8, ptr %0, i64 40
  %18 = load double, ptr %17, align 8
  %19 = getelementptr inbounds nuw i8, ptr %1, i64 40
  %20 = load double, ptr %19, align 8
  %21 = tail call noundef double @llvm.fmuladd.f64(double %18, double %20, double %16)
  %22 = fmul double %12, %12
  %23 = tail call double @llvm.fmuladd.f64(double %9, double %9, double %22)
  %24 = tail call noundef double @llvm.fmuladd.f64(double %18, double %18, double %23)
  %25 = load double, ptr %0, align 8
  %26 = getelementptr inbounds nuw i8, ptr %0, i64 8
  %27 = load double, ptr %26, align 8
  %28 = getelementptr inbounds nuw i8, ptr %0, i64 16
  %29 = load double, ptr %28, align 8
  %30 = getelementptr inbounds nuw i8, ptr %1, i64 8
  %31 = getelementptr inbounds nuw i8, ptr %1, i64 16
  %32 = fmul double %14, %14
  %33 = tail call double @llvm.fmuladd.f64(double %10, double %10, double %32)
  %34 = tail call noundef double @llvm.fmuladd.f64(double %20, double %20, double %33)
  %35 = fneg double %34
  %36 = fmul double %24, %35
  %37 = tail call double @llvm.fmuladd.f64(double %21, double %21, double %36)
  %38 = tail call double @llvm.fabs.f64(double %37)
  %39 = fcmp uge double %38, 0x3EB0C6F7A0B5ED8D
  br i1 %39, label %40, label %84

40:                                               ; preds = %6
  %41 = load double, ptr %31, align 8
  %42 = load double, ptr %1, align 8
  %43 = load double, ptr %30, align 8
  %44 = fmul double %14, %43
  %45 = tail call double @llvm.fmuladd.f64(double %10, double %42, double %44)
  %46 = tail call noundef double @llvm.fmuladd.f64(double %20, double %41, double %45)
  %47 = fmul double %14, %27
  %48 = tail call double @llvm.fmuladd.f64(double %10, double %25, double %47)
  %49 = tail call noundef double @llvm.fmuladd.f64(double %20, double %29, double %48)
  %50 = fmul double %12, %43
  %51 = tail call double @llvm.fmuladd.f64(double %9, double %42, double %50)
  %52 = tail call noundef double @llvm.fmuladd.f64(double %18, double %41, double %51)
  %53 = fmul double %12, %27
  %54 = tail call double @llvm.fmuladd.f64(double %9, double %25, double %53)
  %55 = tail call noundef double @llvm.fmuladd.f64(double %18, double %29, double %54)
  %56 = fsub double %49, %46
  %57 = fsub double %55, %52
  %58 = fneg double %56
  %59 = fmul double %21, %58
  %60 = tail call double @llvm.fmuladd.f64(double %57, double %34, double %59)
  %61 = fdiv double %60, %37
  %62 = fmul double %24, %58
  %63 = tail call double @llvm.fmuladd.f64(double %57, double %21, double %62)
  %64 = fdiv double %63, %37
  %.not = icmp eq ptr %2, null
  br i1 %.not, label %72, label %65

65:                                               ; preds = %40
  %66 = fmul double %9, %61
  %67 = fmul double %61, %12
  %68 = fmul double %61, %18
  %69 = fadd double %25, %66
  %70 = fadd double %27, %67
  %71 = fadd double %29, %68
  store double %69, ptr %2, align 8
  %.sroa.269.0..sroa_idx = getelementptr inbounds nuw i8, ptr %2, i64 8
  store double %70, ptr %.sroa.269.0..sroa_idx, align 8
  %.sroa.370.0..sroa_idx = getelementptr inbounds nuw i8, ptr %2, i64 16
  store double %71, ptr %.sroa.370.0..sroa_idx, align 8
  br label %72

72:                                               ; preds = %65, %40
  %.not53 = icmp eq ptr %3, null
  br i1 %.not53, label %80, label %73

73:                                               ; preds = %72
  %.sroa.0.0.copyload.i.i56 = load double, ptr %8, align 8, !noalias !17
  %.sroa.4.0.copyload.i.i58 = load double, ptr %13, align 8, !noalias !17
  %.sroa.6.0.copyload.i.i60 = load double, ptr %19, align 8, !noalias !17
  %74 = fmul double %64, %.sroa.0.0.copyload.i.i56
  %75 = fmul double %64, %.sroa.4.0.copyload.i.i58
  %76 = fmul double %64, %.sroa.6.0.copyload.i.i60
  %.sroa.0.0.copyload.i2.i61 = load double, ptr %1, align 8, !noalias !22
  %.sroa.4.0.copyload.i4.i63 = load double, ptr %30, align 8, !noalias !22
  %.sroa.6.0.copyload.i6.i65 = load double, ptr %31, align 8, !noalias !22
  %77 = fadd double %74, %.sroa.0.0.copyload.i2.i61
  %78 = fadd double %75, %.sroa.4.0.copyload.i4.i63
  %79 = fadd double %76, %.sroa.6.0.copyload.i6.i65
  store double %77, ptr %3, align 8
  %.sroa.2.0..sroa_idx = getelementptr inbounds nuw i8, ptr %3, i64 8
  store double %78, ptr %.sroa.2.0..sroa_idx, align 8
  %.sroa.3.0..sroa_idx = getelementptr inbounds nuw i8, ptr %3, i64 16
  store double %79, ptr %.sroa.3.0..sroa_idx, align 8
  br label %80

80:                                               ; preds = %73, %72
  %.not54 = icmp eq ptr %4, null
  br i1 %.not54, label %82, label %81

81:                                               ; preds = %80
  store double %61, ptr %4, align 8
  br label %82

82:                                               ; preds = %81, %80
  %.not55 = icmp eq ptr %5, null
  br i1 %.not55, label %84, label %83

83:                                               ; preds = %82
  store double %64, ptr %5, align 8
  br label %84

84:                                               ; preds = %82, %83, %6
  ret i1 %39
}